; ModuleID = '42/825.cpp'
source_filename = "42/825.cpp"
target datalayout = "e-m:e-p270:32:32-p271:32:32-p272:64:64-i64:64-f80:128-n8:16:32:64-S128"
target triple = "x86_64-pc-linux-gnu"

%"class.std::ios_base::Init" = type { i8 }
%"class.std::basic_istream" = type { i32 (...)**, i64, %"class.std::basic_ios" }
%"class.std::basic_ios" = type { %"class.std::ios_base", %"class.std::basic_ostream"*, i8, i8, %"class.std::basic_streambuf"*, %"class.std::ctype"*, %"class.std::num_put"*, %"class.std::num_get"* }
%"class.std::ios_base" = type { i32 (...)**, i64, i64, i32, i32, i32, %"struct.std::ios_base::_Callback_list"*, %"struct.std::ios_base::_Words", [8 x %"struct.std::ios_base::_Words"], i32, %"struct.std::ios_base::_Words"*, %"class.std::locale" }
%"struct.std::ios_base::_Callback_list" = type { %"struct.std::ios_base::_Callback_list"*, void (i32, %"class.std::ios_base"*, i32)*, i32, i32 }
%"struct.std::ios_base::_Words" = type { i8*, i64 }
%"class.std::locale" = type { %"class.std::locale::_Impl"* }
%"class.std::locale::_Impl" = type { i32, %"class.std::locale::facet"**, i64, %"class.std::locale::facet"**, i8** }
%"class.std::locale::facet" = type <{ i32 (...)**, i32, [4 x i8] }>
%"class.std::basic_ostream" = type { i32 (...)**, %"class.std::basic_ios" }
%"class.std::basic_streambuf" = type { i32 (...)**, i8*, i8*, i8*, i8*, i8*, i8*, %"class.std::locale" }
%"class.std::ctype" = type <{ %"class.std::locale::facet.base", [4 x i8], %struct.__locale_struct*, i8, [7 x i8], i32*, i32*, i16*, i8, [256 x i8], [256 x i8], i8, [6 x i8] }>
%"class.std::locale::facet.base" = type <{ i32 (...)**, i32 }>
%struct.__locale_struct = type { [13 x %struct.__locale_data*], i16*, i32*, i32*, [13 x i8*] }
%struct.__locale_data = type opaque
%"class.std::num_put" = type { %"class.std::locale::facet.base", [4 x i8] }
%"class.std::num_get" = type { %"class.std::locale::facet.base", [4 x i8] }

@_ZStL8__ioinit = internal global %"class.std::ios_base::Init" zeroinitializer, align 1
@__dso_handle = external hidden global i8
@_ZSt3cin = external dso_local global %"class.std::basic_istream", align 8
@_ZSt4cout = external dso_local global %"class.std::basic_ostream", align 8
@llvm.global_ctors = appending global [1 x { i32, void ()*, i8* }] [{ i32, void ()*, i8* } { i32 65535, void ()* @_GLOBAL__sub_I_825.cpp, i8* null }]

; Function Attrs: noinline uwtable
define internal void @__cxx_global_var_init() #0 section ".text.startup" {
  call void @_ZNSt8ios_base4InitC1Ev(%"class.std::ios_base::Init"* @_ZStL8__ioinit)
  %1 = call i32 @__cxa_atexit(void (i8*)* bitcast (void (%"class.std::ios_base::Init"*)* @_ZNSt8ios_base4InitD1Ev to void (i8*)*), i8* getelementptr inbounds (%"class.std::ios_base::Init", %"class.std::ios_base::Init"* @_ZStL8__ioinit, i32 0, i32 0), i8* @__dso_handle) #3
  ret void
}

declare dso_local void @_ZNSt8ios_base4InitC1Ev(%"class.std::ios_base::Init"*) unnamed_addr #1

; Function Attrs: nounwind
declare dso_local void @_ZNSt8ios_base4InitD1Ev(%"class.std::ios_base::Init"*) unnamed_addr #2

; Function Attrs: nounwind
declare dso_local i32 @__cxa_atexit(void (i8*)*, i8*, i8*) #3

; Function Attrs: noinline norecurse uwtable
define dso_local i32 @main() #4 {
  %1 = alloca i32, align 4
  %2 = alloca i32, align 4
  %3 = alloca [100000 x i32], align 16
  %4 = alloca i32, align 4
  %5 = alloca i32, align 4
  %6 = alloca i32, align 4
  %7 = alloca i32, align 4
  %8 = alloca i32, align 4
  %9 = alloca i32, align 4
  store i32 0, i32* %1, align 4
  %10 = call dereferenceable(280) %"class.std::basic_istream"* @_ZNSirsERi(%"class.std::basic_istream"* @_ZSt3cin, i32* dereferenceable(4) %2)
  %11 = load i32, i32* %2, align 4
  store i32 %11, i32* %9, align 4
  store i32 0, i32* %4, align 4
  br label %12

12:                                               ; preds = %21, %0
  %13 = load i32, i32* %4, align 4
  %14 = load i32, i32* %2, align 4
  %15 = icmp slt i32 %13, %14
  br i1 %15, label %16, label %24

16:                                               ; preds = %12
  %17 = load i32, i32* %4, align 4
  %18 = sext i32 %17 to i64
  %19 = getelementptr inbounds [100000 x i32], [100000 x i32]* %3, i64 0, i64 %18
  %20 = call dereferenceable(280) %"class.std::basic_istream"* @_ZNSirsERi(%"class.std::basic_istream"* @_ZSt3cin, i32* dereferenceable(4) %19)
  br label %21

21:                                               ; preds = %16
  %22 = load i32, i32* %4, align 4
  %23 = add nsw i32 %22, 1
  store i32 %23, i32* %4, align 4
  br label %12

24:                                               ; preds = %12
  %25 = call dereferenceable(280) %"class.std::basic_istream"* @_ZNSirsERi(%"class.std::basic_istream"* @_ZSt3cin, i32* dereferenceable(4) %8)
  %26 = load i32, i32* %2, align 4
  %27 = sub nsw i32 %26, 1
  store i32 %27, i32* %5, align 4
  br label %28

28:                                               ; preds = %60, %24
  %29 = load i32, i32* %5, align 4
  %30 = icmp sge i32 %29, 0
  br i1 %30, label %31, label %63

31:                                               ; preds = %28
  %32 = load i32, i32* %5, align 4
  %33 = sext i32 %32 to i64
  %34 = getelementptr inbounds [100000 x i32], [100000 x i32]* %3, i64 0, i64 %33
  %35 = load i32, i32* %34, align 4
  %36 = load i32, i32* %8, align 4
  %37 = icmp eq i32 %35, %36
  br i1 %37, label %38, label %59

38:                                               ; preds = %31
  %39 = load i32, i32* %9, align 4
  %40 = add nsw i32 %39, -1
  store i32 %40, i32* %9, align 4
  %41 = load i32, i32* %5, align 4
  store i32 %41, i32* %7, align 4
  br label %42

42:                                               ; preds = %55, %38
  %43 = load i32, i32* %7, align 4
  %44 = load i32, i32* %2, align 4
  %45 = icmp slt i32 %43, %44
  br i1 %45, label %46, label %58

46:                                               ; preds = %42
  %47 = load i32, i32* %7, align 4
  %48 = add nsw i32 %47, 1
  %49 = sext i32 %48 to i64
  %50 = getelementptr inbounds [100000 x i32], [100000 x i32]* %3, i64 0, i64 %49
  %51 = load i32, i32* %50, align 4
  %52 = load i32, i32* %7, align 4
  %53 = sext i32 %52 to i64
  %54 = getelementptr inbounds [100000 x i32], [100000 x i32]* %3, i64 0, i64 %53
  store i32 %51, i32* %54, align 4
  br label %55

55:                                               ; preds = %46
  %56 = load i32, i32* %7, align 4
  %57 = add nsw i32 %56, 1
  store i32 %57, i32* %7, align 4
  br label %42

58:                                               ; preds = %42
  br label %59

59:                                               ; preds = %58, %31
  br label %60

60:                                               ; preds = %59
  %61 = load i32, i32* %5, align 4
  %62 = add nsw i32 %61, -1
  store i32 %62, i32* %5, align 4
  br label %28

63:                                               ; preds = %28
  store i32 0, i32* %6, align 4
  br label %64

64:                                               ; preds = %87, %63
  %65 = load i32, i32* %6, align 4
  %66 = load i32, i32* %9, align 4
  %67 = icmp slt i32 %65, %66
  br i1 %67, label %68, label %90

68:                                               ; preds = %64
  %69 = load i32, i32* %6, align 4
  %70 = load i32, i32* %9, align 4
  %71 = sub nsw i32 %70, 1
  %72 = icmp ne i32 %69, %71
  br i1 %72, label %73, label %80

73:                                               ; preds = %68
  %74 = load i32, i32* %6, align 4
  %75 = sext i32 %74 to i64
  %76 = getelementptr inbounds [100000 x i32], [100000 x i32]* %3, i64 0, i64 %75
  %77 = load i32, i32* %76, align 4
  %78 = call dereferenceable(272) %"class.std::basic_ostream"* @_ZNSolsEi(%"class.std::basic_ostream"* @_ZSt4cout, i32 %77)
  %79 = call dereferenceable(272) %"class.std::basic_ostream"* @_ZStlsISt11char_traitsIcEERSt13basic_ostreamIcT_ES5_c(%"class.std::basic_ostream"* dereferenceable(272) %78, i8 signext 32)
  br label %86

80:                                               ; preds = %68
  %81 = load i32, i32* %6, align 4
  %82 = sext i32 %81 to i64
  %83 = getelementptr inbounds [100000 x i32], [100000 x i32]* %3, i64 0, i64 %82
  %84 = load i32, i32* %83, align 4
  %85 = call dereferenceable(272) %"class.std::basic_ostream"* @_ZNSolsEi(%"class.std::basic_ostream"* @_ZSt4cout, i32 %84)
  br label %86

86:                                               ; preds = %80, %73
  br label %87

87:                                               ; preds = %86
  %88 = load i32, i32* %6, align 4
  %89 = add nsw i32 %88, 1
  store i32 %89, i32* %6, align 4
  br label %64

90:                                               ; preds = %64
  ret i32 0
}

declare dso_local dereferenceable(280) %"class.std::basic_istream"* @_ZNSirsERi(%"class.std::basic_istream"*, i32* dereferenceable(4)) #1

declare dso_local dereferenceable(272) %"class.std::basic_ostream"* @_ZStlsISt11char_traitsIcEERSt13basic_ostreamIcT_ES5_c(%"class.std::basic_ostream"* dereferenceable(272), i8 signext) #1

declare dso_local dereferenceable(272) %"class.std::basic_ostream"* @_ZNSolsEi(%"class.std::basic_ostream"*, i32) #1

; Function Attrs: noinline uwtable
define internal void @_GLOBAL__sub_I_825.cpp() #0 section ".text.startup" {
  call void @__cxx_global_var_init()
  ret void
}


!llvm.module.flags = !{!0}
!llvm.ident = !{!1}

!0 = !{i32 1, !"wchar_size", i32 4}
!1 = !{!"clang version 10.0.0-4ubuntu1 "}
